; Function Attrs: mustprogress nounwind willreturn uwtable
define hidden void @BN_free(ptr noundef captures(address_is_null) %0) local_unnamed_addr #5 {
  %2 = icmp eq ptr %0, null
  br i1 %2, label %15, label %3

3:                                                ; preds = %1
  %4 = getelementptr inbounds nuw i8, ptr %0, i64 20
  %5 = load i32, ptr %4, align 4, !tbaa !6
  %6 = and i32 %5, 2
  %7 = icmp eq i32 %6, 0
  br i1 %7, label %8, label %10

8:                                                ; preds = %3
  %9 = load ptr, ptr %0, align 8, !tbaa !13
  tail call void @free(ptr noundef %9) #14
  %.pre = load i32, ptr %4, align 4, !tbaa !6
  br label %10

10:                                               ; preds = %8, %3
  %11 = phi i32 [ %.pre, %8 ], [ %5, %3 ]
  %12 = and i32 %11, 1
  %.not = icmp eq i32 %12, 0
  br i1 %.not, label %14, label %13

13:                                               ; preds = %10
  tail call void @free(ptr noundef nonnull %0) #14
  br label %15

14:                                               ; preds = %10
  store ptr null, ptr %0, align 8, !tbaa !13
  br label %15

15:                                               ; preds = %1, %14, %13
  ret void
}